(dp1
S'id'
p2
(dp3
S'length'
p4
I512
sS'unique'
p5
I00
sS'sortable'
p6
I1
sS'sql'
p7
S'INTEGER PRIMARY KEY AUTOINCREMENT'
p8
sS'notnull'
p9
I00
sS'type'
p10
g2
ssS'student'
p11
(dp12
g4
I512
sg5
I00
sg6
I3
sg7
S'INTEGER REFERENCES auth_user (id) ON DELETE CASCADE'
p13
sg9
I00
sg10
S'reference auth_user'
p14
ssS'filename'
p15
(dp16
g4
I512
sg5
I00
sg6
I2
sg7
S'CHAR(512)'
p17
sg9
I00
sg10
S'upload'
p18
ss.